
program_asm.o:     file format elf32-littleriscv


Disassembly of section .text:

00000000 <.text>:
   0:	01100293          	li	t0,17
   4:	02000313          	li	t1,32
   8:	02000393          	li	t2,32
   c:	00000e13          	li	t3,0
  10:	ff300e93          	li	t4,-13
  14:	ff300f13          	li	t5,-13
  18:	fdb00f93          	li	t6,-37
  1c:	fee00413          	li	s0,-18
  20:	00802023          	sw	s0,0(zero) # 0 <.text>
  24:	02500413          	li	s0,37
  28:	00802223          	sw	s0,4(zero) # 4 <.text+0x4>
  2c:	fc900413          	li	s0,-55
  30:	00802423          	sw	s0,8(zero) # 8 <.text+0x8>
  34:	00a00413          	li	s0,10
  38:	00802623          	sw	s0,12(zero) # c <.text+0xc>
  3c:	05000413          	li	s0,80
  40:	00802823          	sw	s0,16(zero) # 10 <.text+0x10>
  44:	fd800413          	li	s0,-40
  48:	00802a23          	sw	s0,20(zero) # 14 <.text+0x14>
  4c:	f9d00413          	li	s0,-99
  50:	00802c23          	sw	s0,24(zero) # 18 <.text+0x18>
  54:	02a00413          	li	s0,42
  58:	00802e23          	sw	s0,28(zero) # 1c <.text+0x1c>
  5c:	fd100413          	li	s0,-47
  60:	02802023          	sw	s0,32(zero) # 20 <.text+0x20>
  64:	00d00413          	li	s0,13
  68:	02802223          	sw	s0,36(zero) # 24 <.text+0x24>
  6c:	00900413          	li	s0,9
  70:	02802423          	sw	s0,40(zero) # 28 <.text+0x28>
  74:	fd900413          	li	s0,-39
  78:	02802623          	sw	s0,44(zero) # 2c <.text+0x2c>
  7c:	01100413          	li	s0,17
  80:	02802823          	sw	s0,48(zero) # 30 <.text+0x30>
  84:	f9e00413          	li	s0,-98
  88:	02802a23          	sw	s0,52(zero) # 34 <.text+0x34>
  8c:	fbd00413          	li	s0,-67
  90:	02802c23          	sw	s0,56(zero) # 38 <.text+0x38>
  94:	04900413          	li	s0,73
  98:	02802e23          	sw	s0,60(zero) # 3c <.text+0x3c>
  9c:	fbd00413          	li	s0,-67
  a0:	04802023          	sw	s0,64(zero) # 40 <.text+0x40>
  a4:	05100413          	li	s0,81
  a8:	04802223          	sw	s0,68(zero) # 44 <.text+0x44>
  ac:	fa700413          	li	s0,-89
  b0:	04802423          	sw	s0,72(zero) # 48 <.text+0x48>
  b4:	00200413          	li	s0,2
  b8:	04802623          	sw	s0,76(zero) # 4c <.text+0x4c>
  bc:	01500413          	li	s0,21
  c0:	04802823          	sw	s0,80(zero) # 50 <.text+0x50>
  c4:	fa500413          	li	s0,-91
  c8:	04802a23          	sw	s0,84(zero) # 54 <.text+0x54>
  cc:	01e00413          	li	s0,30
  d0:	04802c23          	sw	s0,88(zero) # 58 <.text+0x58>
  d4:	ffc00413          	li	s0,-4
  d8:	04802e23          	sw	s0,92(zero) # 5c <.text+0x5c>
  dc:	fee00413          	li	s0,-18
  e0:	06802023          	sw	s0,96(zero) # 60 <.text+0x60>
  e4:	fbf00413          	li	s0,-65
  e8:	06802223          	sw	s0,100(zero) # 64 <.text+0x64>
  ec:	05000413          	li	s0,80
  f0:	06802423          	sw	s0,104(zero) # 68 <.text+0x68>
  f4:	ffe00413          	li	s0,-2
  f8:	06802623          	sw	s0,108(zero) # 6c <.text+0x6c>
  fc:	fc500413          	li	s0,-59
 100:	06802823          	sw	s0,112(zero) # 70 <.text+0x70>
 104:	ffd00413          	li	s0,-3
 108:	06802a23          	sw	s0,116(zero) # 74 <.text+0x74>
 10c:	02800413          	li	s0,40
 110:	06802c23          	sw	s0,120(zero) # 78 <.text+0x78>
 114:	fe100413          	li	s0,-31
 118:	06802e23          	sw	s0,124(zero) # 7c <.text+0x7c>
 11c:	fab00413          	li	s0,-85
 120:	08802023          	sw	s0,128(zero) # 80 <.text+0x80>
 124:	fc900413          	li	s0,-55
 128:	08802223          	sw	s0,132(zero) # 84 <.text+0x84>
 12c:	fd300413          	li	s0,-45
 130:	08802423          	sw	s0,136(zero) # 88 <.text+0x88>
 134:	faf00413          	li	s0,-81
 138:	08802623          	sw	s0,140(zero) # 8c <.text+0x8c>
 13c:	fc800413          	li	s0,-56
 140:	08802823          	sw	s0,144(zero) # 90 <.text+0x90>
 144:	fb200413          	li	s0,-78
 148:	08802a23          	sw	s0,148(zero) # 94 <.text+0x94>
 14c:	06400413          	li	s0,100
 150:	08802c23          	sw	s0,152(zero) # 98 <.text+0x98>
 154:	fa800413          	li	s0,-88
 158:	08802e23          	sw	s0,156(zero) # 9c <.text+0x9c>
 15c:	fa800413          	li	s0,-88
 160:	0a802023          	sw	s0,160(zero) # a0 <.text+0xa0>
 164:	fa700413          	li	s0,-89
 168:	0a802223          	sw	s0,164(zero) # a4 <.text+0xa4>
 16c:	fb600413          	li	s0,-74
 170:	0a802423          	sw	s0,168(zero) # a8 <.text+0xa8>
 174:	fc700413          	li	s0,-57
 178:	0a802623          	sw	s0,172(zero) # ac <.text+0xac>
 17c:	04f00413          	li	s0,79
 180:	0a802823          	sw	s0,176(zero) # b0 <.text+0xb0>
 184:	ff600413          	li	s0,-10
 188:	0a802a23          	sw	s0,180(zero) # b4 <.text+0xb4>
 18c:	fed00413          	li	s0,-19
 190:	0a802c23          	sw	s0,184(zero) # b8 <.text+0xb8>
 194:	fed00413          	li	s0,-19
 198:	0a802e23          	sw	s0,188(zero) # bc <.text+0xbc>
 19c:	f9c00413          	li	s0,-100
 1a0:	0c802023          	sw	s0,192(zero) # c0 <.text+0xc0>
 1a4:	01500413          	li	s0,21
 1a8:	0c802223          	sw	s0,196(zero) # c4 <.text+0xc4>
 1ac:	05f00413          	li	s0,95
 1b0:	0c802423          	sw	s0,200(zero) # c8 <.text+0xc8>
 1b4:	01700413          	li	s0,23
 1b8:	0c802623          	sw	s0,204(zero) # cc <.text+0xcc>
 1bc:	00a00413          	li	s0,10
 1c0:	0c802823          	sw	s0,208(zero) # d0 <.text+0xd0>
 1c4:	f9e00413          	li	s0,-98
 1c8:	0c802a23          	sw	s0,212(zero) # d4 <.text+0xd4>
 1cc:	03900413          	li	s0,57
 1d0:	0c802c23          	sw	s0,216(zero) # d8 <.text+0xd8>
 1d4:	03700413          	li	s0,55
 1d8:	0c802e23          	sw	s0,220(zero) # dc <.text+0xdc>
 1dc:	ff100413          	li	s0,-15
 1e0:	0e802023          	sw	s0,224(zero) # e0 <.text+0xe0>
 1e4:	04600413          	li	s0,70
 1e8:	0e802223          	sw	s0,228(zero) # e4 <.text+0xe4>
 1ec:	03500413          	li	s0,53
 1f0:	0e802423          	sw	s0,232(zero) # e8 <.text+0xe8>
 1f4:	ffe00413          	li	s0,-2
 1f8:	0e802623          	sw	s0,236(zero) # ec <.text+0xec>
 1fc:	fb900413          	li	s0,-71
 200:	0e802823          	sw	s0,240(zero) # f0 <.text+0xf0>
 204:	03500413          	li	s0,53
 208:	0e802a23          	sw	s0,244(zero) # f4 <.text+0xf4>
 20c:	fa100413          	li	s0,-95
 210:	0e802c23          	sw	s0,248(zero) # f8 <.text+0xf8>
 214:	fc600413          	li	s0,-58
 218:	0e802e23          	sw	s0,252(zero) # fc <.text+0xfc>
 21c:	c7b36437          	lui	s0,0xc7b36
 220:	54c40413          	addi	s0,s0,1356 # c7b3654c <.text+0xc7b3654c>
 224:	de4074b7          	lui	s1,0xde407
 228:	36e48493          	addi	s1,s1,878 # de40736e <.text+0xde40736e>
 22c:	9732b937          	lui	s2,0x9732b
 230:	f2890913          	addi	s2,s2,-216 # 9732af28 <.text+0x9732af28>
 234:	d937b9b7          	lui	s3,0xd937b
 238:	21198993          	addi	s3,s3,529 # d937b211 <.text+0xd937b211>
 23c:	ba540a37          	lui	s4,0xba540
 240:	998a0a13          	addi	s4,s4,-1640 # ba53f998 <.text+0xba53f998>
 244:	bcbbfab7          	lui	s5,0xbcbbf
 248:	04ea8a93          	addi	s5,s5,78 # bcbbf04e <.text+0xbcbbf04e>
 24c:	cb8b6b37          	lui	s6,0xcb8b6
 250:	1abb0b13          	addi	s6,s6,427 # cb8b61ab <.text+0xcb8b61ab>
 254:	ec349bb7          	lui	s7,0xec349
 258:	3f8b8b93          	addi	s7,s7,1016 # ec3493f8 <.text+0xec3493f8>
 25c:	e1a64c37          	lui	s8,0xe1a64
 260:	45bc0c13          	addi	s8,s8,1115 # e1a6445b <.text+0xe1a6445b>
 264:	63c10cb7          	lui	s9,0x63c10
 268:	8b4c8c93          	addi	s9,s9,-1868 # 63c0f8b4 <.text+0x63c0f8b4>
 26c:	bb384d37          	lui	s10,0xbb384
 270:	c39d0d13          	addi	s10,s10,-967 # bb383c39 <.text+0xbb383c39>
 274:	c8bccdb7          	lui	s11,0xc8bcc
 278:	539d8d93          	addi	s11,s11,1337 # c8bcc539 <.text+0xc8bcc539>
 27c:	0040016f          	jal	sp,280 <.text+0x280>
 280:	012ce5b3          	or	a1,s9,s2
 284:	008000ef          	jal	28c <.text+0x28c>
 288:	012a7833          	and	a6,s4,s2
 28c:	03948533          	mul	a0,s1,s9
 290:	018b68b3          	or	a7,s6,s8
 294:	035907b3          	mul	a5,s2,s5
 298:	017cd8b3          	srl	a7,s9,s7
 29c:	018000ef          	jal	2b4 <.text+0x2b4>
 2a0:	013405b3          	add	a1,s0,s3
 2a4:	418c56b3          	sra	a3,s8,s8
 2a8:	41bad733          	sra	a4,s5,s11
 2ac:	56bd4713          	xori	a4,s10,1387
 2b0:	009c45b3          	xor	a1,s8,s1
 2b4:	cd3a8713          	addi	a4,s5,-813
 2b8:	0062c463          	blt	t0,t1,2c0 <.text+0x2c0>
 2bc:	017957b3          	srl	a5,s2,s7
 2c0:	016a5533          	srl	a0,s4,s6
 2c4:	01794733          	xor	a4,s2,s7
 2c8:	008a98b3          	sll	a7,s5,s0
 2cc:	017418b3          	sll	a7,s0,s7
 2d0:	01ee8663          	beq	t4,t5,2dc <.text+0x2dc>
 2d4:	00731a63          	bne	t1,t2,2e8 <.text+0x2e8>
 2d8:	409cd733          	sra	a4,s9,s1
 2dc:	418c5833          	sra	a6,s8,s8
 2e0:	018b08b3          	add	a7,s6,s8
 2e4:	00534263          	blt	t1,t0,2e8 <.text+0x2e8>
 2e8:	01597733          	and	a4,s2,s5
 2ec:	569d7793          	andi	a5,s10,1385
 2f0:	032b8733          	mul	a4,s7,s2
 2f4:	a86de893          	ori	a7,s11,-1402
 2f8:	22bd8793          	addi	a5,s11,555
 2fc:	03440533          	mul	a0,s0,s4
 300:	01747533          	and	a0,s0,s7
 304:	01d01663          	bne	zero,t4,310 <.text+0x310>
 308:	00534663          	blt	t1,t0,314 <.text+0x314>
 30c:	03bd0633          	mul	a2,s10,s11
 310:	00534663          	blt	t1,t0,31c <.text+0x31c>
 314:	036d0733          	mul	a4,s10,s6
 318:	009c5833          	srl	a6,s8,s1
 31c:	016995b3          	sll	a1,s3,s6
 320:	018ad533          	srl	a0,s5,s8
 324:	039b06b3          	mul	a3,s6,s9
 328:	419d5633          	sra	a2,s10,s9
 32c:	1c94c893          	xori	a7,s1,457
 330:	016df833          	and	a6,s11,s6
 334:	00730663          	beq	t1,t2,340 <.text+0x340>
 338:	008d7833          	and	a6,s10,s0
 33c:	69cb6893          	ori	a7,s6,1692
 340:	a2b96793          	ori	a5,s2,-1493
 344:	0062d863          	bge	t0,t1,354 <.text+0x354>
 348:	0cc100e7          	jalr	204(sp)
 34c:	412b5533          	sra	a0,s6,s2
 350:	01ee8c63          	beq	t4,t5,368 <.text+0x368>
 354:	015bc833          	xor	a6,s7,s5
 358:	03bc8533          	mul	a0,s9,s11
 35c:	0062d663          	bge	t0,t1,368 <.text+0x368>
 360:	413a6813          	ori	a6,s4,1043
 364:	039d87b3          	mul	a5,s11,s9
 368:	017ae6b3          	or	a3,s5,s7
 36c:	013d0833          	add	a6,s10,s3
 370:	01ff5663          	bge	t5,t6,37c <.text+0x37c>
 374:	035a07b3          	mul	a5,s4,s5
 378:	02440713          	addi	a4,s0,36
 37c:	035b0833          	mul	a6,s6,s5
 380:	4099d733          	sra	a4,s3,s1
 384:	c88a7593          	andi	a1,s4,-888
 388:	0129c5b3          	xor	a1,s3,s2
 38c:	29cc4793          	xori	a5,s8,668
 390:	8a7bf593          	andi	a1,s7,-1881
 394:	013986b3          	add	a3,s3,s3
 398:	4139d633          	sra	a2,s3,s3
 39c:	23094813          	xori	a6,s2,560
 3a0:	019968b3          	or	a7,s2,s9
 3a4:	008998b3          	sll	a7,s3,s0
 3a8:	413955b3          	sra	a1,s2,s3
 3ac:	125bf613          	andi	a2,s7,293
 3b0:	45ddc513          	xori	a0,s11,1117
 3b4:	01adc5b3          	xor	a1,s11,s10
 3b8:	013918b3          	sll	a7,s2,s3
 3bc:	01ee9263          	bne	t4,t5,3c0 <.text+0x3c0>
 3c0:	013c8733          	add	a4,s9,s3
 3c4:	9bc46693          	ori	a3,s0,-1604
 3c8:	efcbe893          	ori	a7,s7,-260
 3cc:	008a7533          	and	a0,s4,s0
 3d0:	01ace533          	or	a0,s9,s10
 3d4:	01299833          	sll	a6,s3,s2
 3d8:	59cb4613          	xori	a2,s6,1436
 3dc:	016c8633          	add	a2,s9,s6
 3e0:	019ac7b3          	xor	a5,s5,s9
 3e4:	009b8833          	add	a6,s7,s1
 3e8:	034d85b3          	mul	a1,s11,s4
 3ec:	01bc4733          	xor	a4,s8,s11
 3f0:	f9144793          	xori	a5,s0,-111
 3f4:	01aa7733          	and	a4,s4,s10
 3f8:	417cd833          	sra	a6,s9,s7
 3fc:	019d0633          	add	a2,s10,s9
 400:	028d87b3          	mul	a5,s11,s0
 404:	0194e8b3          	or	a7,s1,s9
 408:	01494633          	xor	a2,s2,s4
 40c:	153de713          	ori	a4,s11,339
 410:	00000013          	nop
 414:	00000013          	nop
 418:	00000013          	nop
 41c:	00000013          	nop
 420:	00000013          	nop
 424:	00000013          	nop
 428:	00000013          	nop
 42c:	00000013          	nop
 430:	00000013          	nop
 434:	00000013          	nop
 438:	0000006f          	j	438 <.text+0x438>
 43c:	00000013          	nop
 440:	00000013          	nop
 444:	00000013          	nop
 448:	00000013          	nop
 44c:	00000013          	nop
